; Function Attrs: nounwind uwtable
define void @av_fifo_drain2(ptr noundef captures(none) %0, i64 noundef %1) local_unnamed_addr #0 {
  %3 = getelementptr inbounds nuw i8, ptr %0, i64 32
  %4 = load i64, ptr %3, align 8, !tbaa !17
  %5 = getelementptr inbounds nuw i8, ptr %0, i64 24
  %6 = load i64, ptr %5, align 8, !tbaa !18
  %.not.i = icmp ugt i64 %4, %6
  br i1 %.not.i, label %15, label %7

7:                                                ; preds = %2
  %8 = getelementptr inbounds nuw i8, ptr %0, i64 40
  %9 = load i32, ptr %8, align 8, !tbaa !14
  %.not10.i = icmp eq i32 %9, 0
  br i1 %.not10.i, label %10, label %15

10:                                               ; preds = %7
  %11 = getelementptr inbounds nuw i8, ptr %0, i64 16
  %12 = load i64, ptr %11, align 8, !tbaa !12
  %13 = sub i64 %4, %6
  %14 = add i64 %13, %12
  br label %av_fifo_can_read.exit

15:                                               ; preds = %7, %2
  %16 = sub i64 %4, %6
  br label %av_fifo_can_read.exit

av_fifo_can_read.exit:                            ; preds = %10, %15
  %.0.i = phi i64 [ %16, %15 ], [ %14, %10 ]
  %.not = icmp ult i64 %.0.i, %1
  br i1 %.not, label %17, label %18

17:                                               ; preds = %av_fifo_can_read.exit
  tail call void (ptr, i32, ptr, ...) @av_log(ptr noundef null, i32 noundef 0, ptr noundef nonnull @.str, ptr noundef nonnull @.str.1, ptr noundef nonnull @.str.2, i32 noundef 270) #10
  tail call void @abort() #11
  unreachable

18:                                               ; preds = %av_fifo_can_read.exit
  %19 = icmp eq i64 %.0.i, %1
  br i1 %19, label %20, label %22

20:                                               ; preds = %18
  %21 = getelementptr inbounds nuw i8, ptr %0, i64 40
  store i32 1, ptr %21, align 8, !tbaa !14
  br label %22

22:                                               ; preds = %20, %18
  %23 = getelementptr inbounds nuw i8, ptr %0, i64 16
  %24 = load i64, ptr %23, align 8, !tbaa !12
  %25 = sub i64 %24, %1
  %.not16 = icmp ult i64 %6, %25
  %26 = sub i64 0, %25
  %storemerge.p = select i1 %.not16, i64 %1, i64 %26
  %storemerge = add i64 %storemerge.p, %6
  store i64 %storemerge, ptr %5, align 8, !tbaa !18
  ret void
}